; Function Attrs: nounwind uwtable
define hidden ptr @je_psset_pick_alloc(ptr noundef %0, i64 noundef %1) local_unnamed_addr #0 {
  %3 = tail call i64 @je_sz_psz_quantize_ceil(i64 noundef %1) #9
  %4 = icmp ugt i64 %3, 8070450532247928832
  br i1 %4, label %sz_psz2ind.exit, label %5, !prof !35

5:                                                ; preds = %2
  %6 = icmp ne i64 %3, 0
  tail call void @llvm.assume(i1 %6)
  %7 = add nsw i64 %3, -1
  %8 = tail call range(i64 0, 65) i64 @llvm.ctlz.i64(i64 %7, i1 false)
  %9 = trunc nuw nsw i64 %8 to i32
  %10 = tail call i32 @llvm.usub.sat.i32(i32 50, i32 %9)
  %11 = icmp samesign ult i64 %3, 16385
  %12 = add nuw nsw i32 %10, 11
  %13 = zext nneg i32 %12 to i64
  %14 = select i1 %11, i64 12, i64 %13
  %15 = lshr i64 %7, %14
  %16 = trunc i64 %15 to i32
  %17 = and i32 %16, 3
  %18 = shl nuw nsw i32 %10, 2
  %19 = or disjoint i32 %17, %18
  %20 = zext nneg i32 %19 to i64
  br label %sz_psz2ind.exit

sz_psz2ind.exit:                                  ; preds = %2, %5
  %.0.i = phi i64 [ %20, %5 ], [ 199, %2 ]
  %21 = getelementptr inbounds nuw i8, ptr %0, i64 1024
  %22 = lshr i64 %.0.i, 6
  %23 = and i64 %.0.i, 63
  %24 = getelementptr inbounds nuw i64, ptr %21, i64 %22
  %25 = load i64, ptr %24, align 8, !tbaa !38
  %notmask.i.i = shl nsw i64 -1, %23
  %.039.i.i = and i64 %notmask.i.i, %25
  %26 = icmp eq i64 %.039.i.i, 0
  br i1 %26, label %.lr.ph.i, label %fb_ffs.exit

.lr.ph.i:                                         ; preds = %sz_psz2ind.exit, %28
  %.038.i4.i = phi i64 [ %29, %28 ], [ %22, %sz_psz2ind.exit ]
  %27 = icmp eq i64 %.038.i4.i, 0
  br i1 %27, label %fb_ffs.exit.thread, label %28

28:                                               ; preds = %.lr.ph.i
  %29 = add nuw nsw i64 %.038.i4.i, 1
  %30 = getelementptr inbounds nuw i64, ptr %21, i64 %29
  %31 = load i64, ptr %30, align 8, !tbaa !38
  %32 = icmp eq i64 %31, 0
  br i1 %32, label %.lr.ph.i, label %fb_ffs.exit, !llvm.loop !47

fb_ffs.exit:                                      ; preds = %28, %sz_psz2ind.exit
  %.140.i.lcssa.i = phi i64 [ %.039.i.i, %sz_psz2ind.exit ], [ %31, %28 ]
  %.038.i.lcssa.i = phi i64 [ %22, %sz_psz2ind.exit ], [ %29, %28 ]
  %33 = tail call range(i64 0, 65) i64 @llvm.cttz.i64(i64 range(i64 1, 0) %.140.i.lcssa.i, i1 true)
  %34 = shl i64 %.038.i.lcssa.i, 6
  %.masked = and i64 %34, 4294967232
  %35 = or disjoint i64 %.masked, %33
  %36 = icmp eq i64 %35, 64
  br i1 %36, label %fb_ffs.exit.thread, label %38

fb_ffs.exit.thread:                               ; preds = %.lr.ph.i, %fb_ffs.exit
  %37 = getelementptr inbounds nuw i8, ptr %0, i64 4224
  %.val = load ptr, ptr %37, align 8, !tbaa !36
  br label %41

38:                                               ; preds = %fb_ffs.exit
  %39 = getelementptr inbounds nuw [64 x %struct.hpdata_age_heap_t], ptr %0, i64 0, i64 %35
  %40 = tail call ptr @je_hpdata_age_heap_first(ptr noundef %39) #9
  br label %41

41:                                               ; preds = %38, %fb_ffs.exit.thread
  %.0 = phi ptr [ %.val, %fb_ffs.exit.thread ], [ %40, %38 ]
  ret ptr %.0
}